; Function Attrs: mustprogress uwtable
define dso_local noundef zeroext i1 @_ZN14cmArchiveWrite4OpenEv(ptr noundef nonnull align 8 dereferenceable(224) %0) local_unnamed_addr #3 align 2 personality ptr @__gxx_personality_v0 {
  %2 = alloca [2 x %"struct.std::pair"], align 8
  %3 = alloca %"class.std::__cxx11::basic_string", align 8
  %4 = alloca %"class.std::__cxx11::basic_string", align 8
  %5 = getelementptr inbounds nuw i8, ptr %0, i64 64
  %6 = tail call noundef zeroext i1 @_ZNKSt7__cxx1112basic_stringIcSt11char_traitsIcESaIcEE5emptyEv(ptr noundef nonnull align 8 dereferenceable(32) %5) #14
  br i1 %6, label %7, label %23

7:                                                ; preds = %1
  %8 = getelementptr inbounds nuw i8, ptr %0, i64 8
  %9 = load ptr, ptr %8, align 8
  %10 = tail call i32 @archive_write_open(ptr noundef %9, ptr noundef nonnull %0, ptr noundef null, ptr noundef nonnull @_ZN14cmArchiveWrite8Callback5WriteEP7archivePvPKvm, ptr noundef null)
  %.not = icmp eq i32 %10, 0
  br i1 %.not, label %23, label %11

11:                                               ; preds = %7
  %12 = load ptr, ptr %8, align 8
  call fastcc void @_ZL23cm_archive_error_stringB5cxx11P7archive(ptr dead_on_unwind noalias writable align 8 %4, ptr noundef %12)
  call void @llvm.lifetime.start.p0(i64 48, ptr nonnull %2)
  store i64 20, ptr %2, align 8, !alias.scope !144, !noalias !147
  %.sroa.2.0..sroa_idx.i.i = getelementptr inbounds nuw i8, ptr %2, i64 8
  store ptr @.str.23, ptr %.sroa.2.0..sroa_idx.i.i, align 8, !alias.scope !144, !noalias !147
  %13 = getelementptr inbounds nuw i8, ptr %2, i64 16
  store ptr null, ptr %13, align 8, !alias.scope !144, !noalias !147
  %14 = getelementptr inbounds nuw i8, ptr %2, i64 24
  call void @llvm.experimental.noalias.scope.decl(metadata !150)
  %15 = call { i64, ptr } @_ZNKSt7__cxx1112basic_stringIcSt11char_traitsIcESaIcEEcvSt17basic_string_viewIcS2_EEv(ptr noundef nonnull align 8 dereferenceable(32) %4) #14, !noalias !153
  %16 = extractvalue { i64, ptr } %15, 0
  %17 = extractvalue { i64, ptr } %15, 1
  store i64 %16, ptr %14, align 8, !alias.scope !150, !noalias !147
  %.sroa.2.0..sroa_idx.i5.i = getelementptr inbounds nuw i8, ptr %2, i64 32
  store ptr %17, ptr %.sroa.2.0..sroa_idx.i5.i, align 8, !alias.scope !150, !noalias !147
  %18 = getelementptr inbounds nuw i8, ptr %2, i64 40
  store ptr %4, ptr %18, align 8, !alias.scope !150, !noalias !147
  invoke void @_Z10cmCatViewsSt16initializer_listISt4pairISt17basic_string_viewIcSt11char_traitsIcEEPNSt7__cxx1112basic_stringIcS3_SaIcEEEEE(ptr dead_on_unwind nonnull writable sret(%"class.std::__cxx11::basic_string") align 8 %3, ptr nonnull %2, i64 2)
          to label %19 unwind label %21

19:                                               ; preds = %11
  call void @llvm.lifetime.end.p0(i64 48, ptr nonnull %2)
  %20 = call noundef nonnull align 8 dereferenceable(32) ptr @_ZNSt7__cxx1112basic_stringIcSt11char_traitsIcESaIcEEaSEOS4_(ptr noundef nonnull align 8 dereferenceable(32) %5, ptr noundef nonnull align 8 dereferenceable(32) %3) #14
  call void @_ZNSt7__cxx1112basic_stringIcSt11char_traitsIcESaIcEED1Ev(ptr noundef nonnull align 8 dereferenceable(32) %3) #14
  call void @_ZNSt7__cxx1112basic_stringIcSt11char_traitsIcESaIcEED1Ev(ptr noundef nonnull align 8 dereferenceable(32) %4) #14
  br label %23

21:                                               ; preds = %11
  %22 = landingpad { ptr, i32 }
          cleanup
  call void @_ZNSt7__cxx1112basic_stringIcSt11char_traitsIcESaIcEED1Ev(ptr noundef nonnull align 8 dereferenceable(32) %4) #14
  resume { ptr, i32 } %22

23:                                               ; preds = %7, %1, %19
  %.0 = phi i1 [ false, %19 ], [ false, %1 ], [ true, %7 ]
  ret i1 %.0
}